; ModuleID = 'bench/osqp/original/SuiteSparse_config.c.ll'
source_filename = "bench/osqp/original/SuiteSparse_config.c.ll"
target datalayout = "e-m:e-p270:32:32-p271:32:32-p272:64:64-i64:64-i128:128-f80:128-n8:16:32:64-S128"
target triple = "x86_64-pc-linux-gnu"

%struct.SuiteSparse_config_struct = type { ptr, ptr, ptr, ptr, ptr, ptr }

@SuiteSparse_config = local_unnamed_addr global %struct.SuiteSparse_config_struct { ptr @malloc, ptr @realloc, ptr @free, ptr null, ptr @SuiteSparse_hypot, ptr @SuiteSparse_divcomplex }, align 8

; Function Attrs: mustprogress nofree nounwind willreturn allockind("alloc,uninitialized") allocsize(0) memory(inaccessiblemem: readwrite)
declare noalias noundef ptr @malloc(i64 noundef) #0

; Function Attrs: mustprogress nounwind willreturn allockind("realloc") allocsize(1) memory(argmem: readwrite, inaccessiblemem: readwrite)
declare noalias noundef ptr @realloc(ptr allocptr nocapture noundef, i64 noundef) #1

; Function Attrs: mustprogress nounwind willreturn allockind("free") memory(argmem: readwrite, inaccessiblemem: readwrite)
declare void @free(ptr allocptr nocapture noundef) #2

; Function Attrs: mustprogress nofree norecurse nosync nounwind willreturn memory(none) uwtable
define double @SuiteSparse_hypot(double noundef %0, double noundef %1) #3 {
  %3 = tail call double @llvm.fabs.f64(double %0)
  %4 = tail call double @llvm.fabs.f64(double %1)
  %5 = fcmp ult double %3, %4
  %6 = fadd double %3, %4
  br i1 %5, label %13, label %7

7:                                                ; preds = %2
  %8 = fcmp oeq double %6, %3
  br i1 %8, label %19, label %9

9:                                                ; preds = %7
  %10 = fdiv double %4, %3
  %11 = tail call double @llvm.fmuladd.f64(double %10, double %10, double 1.000000e+00)
  %sqrt = tail call double @llvm.sqrt.f64(double %11)
  %12 = fmul double %3, %sqrt
  br label %19

13:                                               ; preds = %2
  %14 = fcmp oeq double %6, %4
  br i1 %14, label %19, label %15

15:                                               ; preds = %13
  %16 = fdiv double %3, %4
  %17 = tail call double @llvm.fmuladd.f64(double %16, double %16, double 1.000000e+00)
  %sqrt25 = tail call double @llvm.sqrt.f64(double %17)
  %18 = fmul double %4, %sqrt25
  br label %19

19:                                               ; preds = %13, %7, %15, %9
  %.0 = phi double [ %12, %9 ], [ %18, %15 ], [ %3, %7 ], [ %4, %13 ]
  ret double %.0
}

; Function Attrs: mustprogress nofree norecurse nosync nounwind willreturn memory(argmem: write) uwtable
define noundef i32 @SuiteSparse_divcomplex(double noundef %0, double noundef %1, double noundef %2, double noundef %3, ptr nocapture noundef writeonly %4, ptr nocapture noundef writeonly %5) #4 {
  %7 = tail call double @llvm.fabs.f64(double %2)
  %8 = tail call double @llvm.fabs.f64(double %3)
  %9 = fcmp ult double %7, %8
  %10 = fneg double %0
  br i1 %9, label %24, label %11

11:                                               ; preds = %6
  %12 = fdiv double %3, %2
  %13 = tail call double @llvm.fmuladd.f64(double %12, double %3, double %2)
  %14 = insertelement <2 x double> poison, double %1, i64 0
  %15 = insertelement <2 x double> %14, double %10, i64 1
  %16 = insertelement <2 x double> poison, double %12, i64 0
  %17 = shufflevector <2 x double> %16, <2 x double> poison, <2 x i32> zeroinitializer
  %18 = insertelement <2 x double> poison, double %0, i64 0
  %19 = insertelement <2 x double> %18, double %1, i64 1
  %20 = tail call <2 x double> @llvm.fmuladd.v2f64(<2 x double> %15, <2 x double> %17, <2 x double> %19)
  %21 = insertelement <2 x double> poison, double %13, i64 0
  %22 = shufflevector <2 x double> %21, <2 x double> poison, <2 x i32> zeroinitializer
  %23 = fdiv <2 x double> %20, %22
  br label %37

24:                                               ; preds = %6
  %25 = fdiv double %2, %3
  %26 = tail call double @llvm.fmuladd.f64(double %25, double %2, double %3)
  %27 = insertelement <2 x double> poison, double %0, i64 0
  %28 = insertelement <2 x double> %27, double %1, i64 1
  %29 = insertelement <2 x double> poison, double %25, i64 0
  %30 = shufflevector <2 x double> %29, <2 x double> poison, <2 x i32> zeroinitializer
  %31 = insertelement <2 x double> poison, double %1, i64 0
  %32 = insertelement <2 x double> %31, double %10, i64 1
  %33 = tail call <2 x double> @llvm.fmuladd.v2f64(<2 x double> %28, <2 x double> %30, <2 x double> %32)
  %34 = insertelement <2 x double> poison, double %26, i64 0
  %35 = shufflevector <2 x double> %34, <2 x double> poison, <2 x i32> zeroinitializer
  %36 = fdiv <2 x double> %33, %35
  br label %37

37:                                               ; preds = %24, %11
  %.0 = phi double [ %13, %11 ], [ %26, %24 ]
  %38 = phi <2 x double> [ %23, %11 ], [ %36, %24 ]
  %39 = extractelement <2 x double> %38, i64 0
  store double %39, ptr %4, align 8
  %40 = extractelement <2 x double> %38, i64 1
  store double %40, ptr %5, align 8
  %41 = fcmp oeq double %.0, 0.000000e+00
  %42 = zext i1 %41 to i32
  ret i32 %42
}

; Function Attrs: nounwind uwtable
define ptr @SuiteSparse_malloc(i64 noundef %0, i64 noundef %1) local_unnamed_addr #5 {
  %spec.store.select = tail call i64 @llvm.umax.i64(i64 %0, i64 1)
  %spec.store.select1 = tail call i64 @llvm.umax.i64(i64 %1, i64 1)
  %3 = mul i64 %spec.store.select1, %spec.store.select
  %4 = uitofp i64 %3 to double
  %5 = uitofp i64 %spec.store.select to double
  %6 = uitofp i64 %spec.store.select1 to double
  %7 = fmul double %5, %6
  %8 = fcmp une double %7, %4
  br i1 %8, label %12, label %9

9:                                                ; preds = %2
  %10 = load ptr, ptr @SuiteSparse_config, align 8
  %11 = tail call ptr %10(i64 noundef %3) #10
  br label %12

12:                                               ; preds = %2, %9
  %.0 = phi ptr [ %11, %9 ], [ null, %2 ]
  ret ptr %.0
}

; Function Attrs: nounwind uwtable
define ptr @SuiteSparse_realloc(i64 noundef %0, i64 noundef %1, i64 noundef %2, ptr noundef %3, ptr nocapture noundef writeonly %4) local_unnamed_addr #5 {
  %spec.store.select = tail call i64 @llvm.umax.i64(i64 %1, i64 1)
  %spec.store.select2 = tail call i64 @llvm.umax.i64(i64 %0, i64 1)
  %spec.store.select1 = tail call i64 @llvm.umax.i64(i64 %2, i64 1)
  %6 = mul i64 %spec.store.select1, %spec.store.select2
  %7 = uitofp i64 %6 to double
  %8 = uitofp i64 %spec.store.select2 to double
  %9 = uitofp i64 %spec.store.select1 to double
  %10 = fmul double %8, %9
  %11 = fcmp une double %10, %7
  br i1 %11, label %23, label %12

12:                                               ; preds = %5
  %13 = icmp eq ptr %3, null
  br i1 %13, label %SuiteSparse_malloc.exit, label %17

SuiteSparse_malloc.exit:                          ; preds = %12
  %14 = load ptr, ptr @SuiteSparse_config, align 8
  %15 = tail call ptr %14(i64 noundef %6) #10
  %16 = icmp ne ptr %15, null
  br label %23

17:                                               ; preds = %12
  %18 = icmp eq i64 %spec.store.select, %spec.store.select2
  br i1 %18, label %23, label %19

19:                                               ; preds = %17
  %20 = tail call ptr @realloc(ptr noundef nonnull %3, i64 noundef %6) #11
  %21 = icmp ne ptr %20, null
  %22 = icmp ult i64 %spec.store.select2, %1
  %spec.select = or i1 %21, %22
  %spec.select30 = select i1 %21, ptr %20, ptr %3
  br label %23

23:                                               ; preds = %19, %17, %5, %SuiteSparse_malloc.exit
  %.sink.shrunk = phi i1 [ %16, %SuiteSparse_malloc.exit ], [ false, %5 ], [ true, %17 ], [ %spec.select, %19 ]
  %.0 = phi ptr [ %15, %SuiteSparse_malloc.exit ], [ %3, %5 ], [ %3, %17 ], [ %spec.select30, %19 ]
  %.sink = zext i1 %.sink.shrunk to i32
  store i32 %.sink, ptr %4, align 4
  ret ptr %.0
}

; Function Attrs: nounwind uwtable
define noundef ptr @SuiteSparse_free(ptr noundef %0) local_unnamed_addr #5 {
  %.not = icmp eq ptr %0, null
  br i1 %.not, label %4, label %2

2:                                                ; preds = %1
  %3 = load ptr, ptr getelementptr inbounds (%struct.SuiteSparse_config_struct, ptr @SuiteSparse_config, i64 0, i32 2), align 8
  tail call void %3(ptr noundef nonnull %0) #10
  br label %4

4:                                                ; preds = %2, %1
  ret ptr null
}

; Function Attrs: mustprogress nofree norecurse nosync nounwind willreturn memory(argmem: write) uwtable
define void @SuiteSparse_tic(ptr nocapture noundef writeonly %0) local_unnamed_addr #4 {
  tail call void @llvm.memset.p0.i64(ptr noundef nonnull align 8 dereferenceable(16) %0, i8 0, i64 16, i1 false)
  ret void
}

; Function Attrs: mustprogress nofree norecurse nosync nounwind willreturn memory(argmem: read) uwtable
define double @SuiteSparse_toc(ptr nocapture noundef readonly %0) local_unnamed_addr #6 {
  %2 = load double, ptr %0, align 8
  %3 = fsub double 0.000000e+00, %2
  %4 = getelementptr inbounds i8, ptr %0, i64 8
  %5 = load double, ptr %4, align 8
  %6 = fsub double 0.000000e+00, %5
  %7 = tail call double @llvm.fmuladd.f64(double %6, double 1.000000e-09, double %3)
  ret double %7
}

; Function Attrs: mustprogress nocallback nofree nosync nounwind speculatable willreturn memory(none)
declare double @llvm.fmuladd.f64(double, double, double) #7

; Function Attrs: mustprogress nofree norecurse nosync nounwind willreturn memory(none) uwtable
define noundef double @SuiteSparse_time() local_unnamed_addr #3 {
  ret double 0.000000e+00
}

; Function Attrs: mustprogress nofree norecurse nosync nounwind willreturn memory(argmem: write) uwtable
define noundef i32 @SuiteSparse_version(ptr noundef writeonly %0) local_unnamed_addr #4 {
  %.not = icmp eq ptr %0, null
  br i1 %.not, label %5, label %2

2:                                                ; preds = %1
  store i32 4, ptr %0, align 4
  %3 = getelementptr inbounds i8, ptr %0, i64 4
  store i32 5, ptr %3, align 4
  %4 = getelementptr inbounds i8, ptr %0, i64 8
  store i32 3, ptr %4, align 4
  br label %5

5:                                                ; preds = %2, %1
  ret i32 4005
}

; Function Attrs: mustprogress nocallback nofree nosync nounwind speculatable willreturn memory(none)
declare double @llvm.fabs.f64(double) #7

; Function Attrs: nocallback nofree nosync nounwind speculatable willreturn memory(none)
declare i64 @llvm.umax.i64(i64, i64) #8

; Function Attrs: nocallback nofree nosync nounwind speculatable willreturn memory(none)
declare double @llvm.sqrt.f64(double) #8

; Function Attrs: nocallback nofree nounwind willreturn memory(argmem: write)
declare void @llvm.memset.p0.i64(ptr nocapture writeonly, i8, i64, i1 immarg) #9

; Function Attrs: nocallback nofree nosync nounwind speculatable willreturn memory(none)
declare <2 x double> @llvm.fmuladd.v2f64(<2 x double>, <2 x double>, <2 x double>) #8


!llvm.module.flags = !{!0, !1, !2, !3}

!0 = !{i32 1, !"wchar_size", i32 4}
!1 = !{i32 8, !"PIC Level", i32 2}
!2 = !{i32 7, !"uwtable", i32 2}
!3 = !{i32 7, !"frame-pointer", i32 2}
